target datalayout = "e-m:e-p270:32:32-p271:32:32-p272:64:64-i64:64-i128:128-f80:128-n8:16:32:64-S128"
target triple = "x86_64-pc-linux-gnu"

@.str.53 = private unnamed_addr constant [31 x i8] c"../openssl/test/evp_kdf_test.c\00", align 1
@.str.60 = private unnamed_addr constant [7 x i8] c"sha256\00", align 1
@.str.62 = private unnamed_addr constant [7 x i8] c"params\00", align 1
@.str.65 = private unnamed_addr constant [37 x i8] c"EVP_KDF_CTX_set_params(kctx, params)\00", align 1
@.str.67 = private unnamed_addr constant [2 x i8] c"0\00", align 1
@.str.71 = private unnamed_addr constant [5 x i8] c"salt\00", align 1
@.str.118 = private unnamed_addr constant [7 x i8] c"secret\00", align 1
@.str.121 = private unnamed_addr constant [35 x i8] c"EVP_KDF_derive(kctx, out, 0, NULL)\00", align 1
@.str.124 = private unnamed_addr constant [6 x i8] c"label\00", align 1
@.str.125 = private unnamed_addr constant [41 x i8] c"kctx = get_kdfbyname(OSSL_KDF_NAME_HKDF)\00", align 1
@.str.126 = private unnamed_addr constant [5 x i8] c"HKDF\00", align 1

; Function Attrs: nounwind uwtable
define internal ptr @get_kdfbyname_libctx(ptr noundef %0, ptr noundef %1) #0 {
  %3 = alloca ptr, align 8
  %4 = alloca ptr, align 8
  %5 = alloca ptr, align 8
  %6 = alloca ptr, align 8
  store ptr %0, ptr %3, align 8, !tbaa !11
  store ptr %1, ptr %4, align 8, !tbaa !18
  call void @llvm.lifetime.start.p0(i64 8, ptr %5) #6
  %7 = load ptr, ptr %3, align 8, !tbaa !11
  %8 = load ptr, ptr %4, align 8, !tbaa !18
  %9 = call ptr @EVP_KDF_fetch(ptr noundef %7, ptr noundef %8, ptr noundef null)
  store ptr %9, ptr %5, align 8, !tbaa !26
  call void @llvm.lifetime.start.p0(i64 8, ptr %6) #6
  %10 = load ptr, ptr %5, align 8, !tbaa !26
  %11 = call ptr @EVP_KDF_CTX_new(ptr noundef %10)
  store ptr %11, ptr %6, align 8, !tbaa !8
  %12 = load ptr, ptr %5, align 8, !tbaa !26
  call void @EVP_KDF_free(ptr noundef %12)
  %13 = load ptr, ptr %6, align 8, !tbaa !8
  call void @llvm.lifetime.end.p0(i64 8, ptr %6) #6
  call void @llvm.lifetime.end.p0(i64 8, ptr %5) #6
  ret ptr %13
}

; Function Attrs: nounwind uwtable
define internal ptr @get_kdfbyname(ptr noundef %0) #0 {
  %2 = alloca ptr, align 8
  store ptr %0, ptr %2, align 8, !tbaa !18
  %3 = load ptr, ptr %2, align 8, !tbaa !18
  %4 = call ptr @get_kdfbyname_libctx(ptr noundef null, ptr noundef %3)
  ret ptr %4
}

; Function Attrs: nounwind uwtable
define internal i32 @test_kdf_hkdf_zero_output_size() #0 {
  %1 = alloca i32, align 4
  %2 = alloca ptr, align 8
  %3 = alloca [10 x i8], align 1
  %4 = alloca ptr, align 8
  call void @llvm.lifetime.start.p0(i64 4, ptr %1) #6
  call void @llvm.lifetime.start.p0(i64 8, ptr %2) #6
  store ptr null, ptr %2, align 8, !tbaa !8
  call void @llvm.lifetime.start.p0(i64 10, ptr %3) #6
  call void @llvm.lifetime.start.p0(i64 8, ptr %4) #6
  %5 = call ptr @construct_hkdf_params(ptr noundef @.str.60, ptr noundef @.str.118, i64 noundef 6, ptr noundef @.str.71, ptr noundef @.str.124)
  store ptr %5, ptr %4, align 8, !tbaa !13
  %6 = load ptr, ptr %4, align 8, !tbaa !13
  %7 = call i32 @test_ptr(ptr noundef @.str.53, i32 noundef 412, ptr noundef @.str.62, ptr noundef %6)
  %8 = icmp ne i32 %7, 0
  br i1 %8, label %9, label %27

9:                                                ; preds = %0
  %10 = call ptr @get_kdfbyname(ptr noundef @.str.126)
  store ptr %10, ptr %2, align 8, !tbaa !8
  %11 = call i32 @test_ptr(ptr noundef @.str.53, i32 noundef 413, ptr noundef @.str.125, ptr noundef %10)
  %12 = icmp ne i32 %11, 0
  br i1 %12, label %13, label %27

13:                                               ; preds = %9
  %14 = load ptr, ptr %2, align 8, !tbaa !8
  %15 = load ptr, ptr %4, align 8, !tbaa !13
  %16 = call i32 @EVP_KDF_CTX_set_params(ptr noundef %14, ptr noundef %15)
  %17 = icmp ne i32 %16, 0
  %18 = zext i1 %17 to i32
  %19 = call i32 @test_true(ptr noundef @.str.53, i32 noundef 414, ptr noundef @.str.65, i32 noundef %18)
  %20 = icmp ne i32 %19, 0
  br i1 %20, label %21, label %27

21:                                               ; preds = %13
  %22 = load ptr, ptr %2, align 8, !tbaa !8
  %23 = getelementptr inbounds [10 x i8], ptr %3, i64 0, i64 0
  %24 = call i32 @EVP_KDF_derive(ptr noundef %22, ptr noundef %23, i64 noundef 0, ptr noundef null)
  %25 = call i32 @test_int_eq(ptr noundef @.str.53, i32 noundef 415, ptr noundef @.str.121, ptr noundef @.str.67, i32 noundef %24, i32 noundef 0)
  %26 = icmp ne i32 %25, 0
  br label %27

27:                                               ; preds = %21, %13, %9, %0
  %28 = phi i1 [ false, %13 ], [ false, %9 ], [ false, %0 ], [ %26, %21 ]
  %29 = zext i1 %28 to i32
  store i32 %29, ptr %1, align 4, !tbaa !4
  %30 = load ptr, ptr %2, align 8, !tbaa !8
  call void @EVP_KDF_CTX_free(ptr noundef %30)
  %31 = load ptr, ptr %4, align 8, !tbaa !13
  call void @CRYPTO_free(ptr noundef %31, ptr noundef @.str.53, i32 noundef 418)
  %32 = load i32, ptr %1, align 4, !tbaa !4
  call void @llvm.lifetime.end.p0(i64 8, ptr %4) #6
  call void @llvm.lifetime.end.p0(i64 10, ptr %3) #6
  call void @llvm.lifetime.end.p0(i64 8, ptr %2) #6
  call void @llvm.lifetime.end.p0(i64 4, ptr %1) #6
  ret i32 %32
}