; Function Attrs: nounwind uwtable
define internal range(i32 0, 2) i32 @test_kdf_hkdf_zero_output_size() #0 {
  %1 = alloca [10 x i8], align 1
  call void @llvm.lifetime.start.p0(i64 10, ptr nonnull %1) #6
  %2 = tail call fastcc ptr @construct_hkdf_params(ptr noundef nonnull @.str.60, ptr noundef nonnull @.str.118, i64 noundef 6, ptr noundef nonnull @.str.71, ptr noundef nonnull @.str.124)
  %3 = tail call i32 @test_ptr(ptr noundef nonnull @.str.53, i32 noundef 412, ptr noundef nonnull @.str.62, ptr noundef %2) #6
  %.not = icmp eq i32 %3, 0
  br i1 %.not, label %18, label %4

4:                                                ; preds = %0
  %5 = tail call ptr @EVP_KDF_fetch(ptr noundef null, ptr noundef nonnull @.str.126, ptr noundef null) #6
  %6 = tail call ptr @EVP_KDF_CTX_new(ptr noundef %5) #6
  tail call void @EVP_KDF_free(ptr noundef %5) #6
  %7 = tail call i32 @test_ptr(ptr noundef nonnull @.str.53, i32 noundef 413, ptr noundef nonnull @.str.125, ptr noundef %6) #6
  %.not6 = icmp eq i32 %7, 0
  br i1 %.not6, label %18, label %8

8:                                                ; preds = %4
  %9 = tail call i32 @EVP_KDF_CTX_set_params(ptr noundef %6, ptr noundef %2) #6
  %10 = icmp ne i32 %9, 0
  %11 = zext i1 %10 to i32
  %12 = tail call i32 @test_true(ptr noundef nonnull @.str.53, i32 noundef 414, ptr noundef nonnull @.str.65, i32 noundef %11) #6
  %.not7 = icmp eq i32 %12, 0
  br i1 %.not7, label %18, label %13

13:                                               ; preds = %8
  %14 = call i32 @EVP_KDF_derive(ptr noundef %6, ptr noundef nonnull %1, i64 noundef 0, ptr noundef null) #6
  %15 = call i32 @test_int_eq(ptr noundef nonnull @.str.53, i32 noundef 415, ptr noundef nonnull @.str.121, ptr noundef nonnull @.str.67, i32 noundef %14, i32 noundef 0) #6
  %16 = icmp ne i32 %15, 0
  %17 = zext i1 %16 to i32
  br label %18

18:                                               ; preds = %13, %8, %4, %0
  %.0 = phi ptr [ %6, %13 ], [ %6, %8 ], [ %6, %4 ], [ null, %0 ]
  %19 = phi i32 [ %17, %13 ], [ 0, %8 ], [ 0, %4 ], [ 0, %0 ]
  call void @EVP_KDF_CTX_free(ptr noundef %.0) #6
  call void @CRYPTO_free(ptr noundef %2, ptr noundef nonnull @.str.53, i32 noundef 418) #6
  call void @llvm.lifetime.end.p0(i64 10, ptr nonnull %1) #6
  ret i32 %19
}